target datalayout = "e-m:e-p270:32:32-p271:32:32-p272:64:64-i64:64-i128:128-f80:128-n8:16:32:64-S128"
target triple = "x86_64-pc-linux-gnu"

%"class.std::__cxx11::basic_string" = type { %"struct.std::__cxx11::basic_string<char>::_Alloc_hider", i64, %union.anon }
%"struct.std::__cxx11::basic_string<char>::_Alloc_hider" = type { ptr }
%union.anon = type { i64, [8 x i8] }
%"class.std::tuple" = type { %"struct.std::_Tuple_impl" }
%"struct.std::_Tuple_impl" = type { %"struct.std::_Tuple_impl.0", %"struct.std::_Head_base.1" }
%"struct.std::_Tuple_impl.0" = type { %"struct.std::_Head_base" }
%"struct.std::_Head_base" = type { ptr }
%"struct.std::_Head_base.1" = type { ptr }
%"struct.nix::SingleBuiltPathBuilt" = type { %"class.nix::ref", %"struct.std::pair" }
%"class.nix::ref" = type { %"class.std::shared_ptr" }
%"class.std::shared_ptr" = type { %"class.std::__shared_ptr" }
%"class.std::__shared_ptr" = type { ptr, %"class.std::__shared_count" }
%"class.std::__shared_count" = type { ptr }
%"struct.std::pair" = type { %"class.std::__cxx11::basic_string", %"class.nix::StorePath" }
%"class.nix::StorePath" = type { %"class.std::__cxx11::basic_string" }

; Function Attrs: mustprogress nounwind uwtable
define linkonce_odr void @_ZNSt10_Head_baseILm1ERKSt4pairINSt7__cxx1112basic_stringIcSt11char_traitsIcESaIcEEEN3nix9StorePathEELb0EEC2ESB_(ptr noundef nonnull align 8 dereferenceable(8) %0, ptr noundef nonnull align 8 dereferenceable(64) %1) unnamed_addr #2 comdat align 2 {
  %3 = alloca ptr, align 8
  %4 = alloca ptr, align 8
  store ptr %0, ptr %3, align 8
  store ptr %1, ptr %4, align 8
  %5 = load ptr, ptr %3, align 8
  %6 = getelementptr inbounds %"struct.std::_Head_base", ptr %5, i32 0, i32 0
  %7 = load ptr, ptr %4, align 8
  store ptr %7, ptr %6, align 8
  ret void
}

; Function Attrs: mustprogress nounwind uwtable
define linkonce_odr void @_ZNSt10_Head_baseILm0ERN3nix15SingleBuiltPathELb0EEC2ES2_(ptr noundef nonnull align 8 dereferenceable(8) %0, ptr noundef nonnull align 8 dereferenceable(81) %1) unnamed_addr #2 comdat align 2 {
  %3 = alloca ptr, align 8
  %4 = alloca ptr, align 8
  store ptr %0, ptr %3, align 8
  store ptr %1, ptr %4, align 8
  %5 = load ptr, ptr %3, align 8
  %6 = getelementptr inbounds %"struct.std::_Head_base.1", ptr %5, i32 0, i32 0
  %7 = load ptr, ptr %4, align 8
  store ptr %7, ptr %6, align 8
  ret void
}

; Function Attrs: mustprogress uwtable
define linkonce_odr void @_ZNSt11_Tuple_implILm1EJRKSt4pairINSt7__cxx1112basic_stringIcSt11char_traitsIcESaIcEEEN3nix9StorePathEEEEC2ESB_(ptr noundef nonnull align 8 dereferenceable(8) %0, ptr noundef nonnull align 8 dereferenceable(64) %1) unnamed_addr #5 comdat align 2 {
  %3 = alloca ptr, align 8
  %4 = alloca ptr, align 8
  store ptr %0, ptr %3, align 8
  store ptr %1, ptr %4, align 8
  %5 = load ptr, ptr %3, align 8
  %6 = load ptr, ptr %4, align 8
  call void @_ZNSt10_Head_baseILm1ERKSt4pairINSt7__cxx1112basic_stringIcSt11char_traitsIcESaIcEEEN3nix9StorePathEELb0EEC2ESB_(ptr noundef nonnull align 8 dereferenceable(8) %5, ptr noundef nonnull align 8 dereferenceable(64) %6)
  ret void
}

; Function Attrs: mustprogress nounwind uwtable
define linkonce_odr noundef ptr @_ZNKSt12__shared_ptrIN3nix15SingleBuiltPathELN9__gnu_cxx12_Lock_policyE2EE3getEv(ptr noundef nonnull align 8 dereferenceable(16) %0) #2 comdat align 2 {
  %2 = alloca ptr, align 8
  store ptr %0, ptr %2, align 8
  %3 = load ptr, ptr %2, align 8
  %4 = getelementptr inbounds %"class.std::__shared_ptr", ptr %3, i32 0, i32 0
  %5 = load ptr, ptr %4, align 8
  ret ptr %5
}

; Function Attrs: noreturn nounwind uwtable
define linkonce_odr hidden void @__clang_call_terminate(ptr noundef %0) #7 comdat {
  %2 = call ptr @__cxa_begin_catch(ptr %0) #1
  call void @_ZSt9terminatev() #16
  unreachable
}

; Function Attrs: mustprogress uwtable
define linkonce_odr void @_ZNSt11_Tuple_implILm0EJRN3nix15SingleBuiltPathERKSt4pairINSt7__cxx1112basic_stringIcSt11char_traitsIcESaIcEEENS0_9StorePathEEEEC2ES2_SD_(ptr noundef nonnull align 8 dereferenceable(16) %0, ptr noundef nonnull align 8 dereferenceable(81) %1, ptr noundef nonnull align 8 dereferenceable(64) %2) unnamed_addr #5 comdat align 2 {
  %4 = alloca ptr, align 8
  %5 = alloca ptr, align 8
  %6 = alloca ptr, align 8
  store ptr %0, ptr %4, align 8
  store ptr %1, ptr %5, align 8
  store ptr %2, ptr %6, align 8
  %7 = load ptr, ptr %4, align 8
  %8 = load ptr, ptr %6, align 8
  call void @_ZNSt11_Tuple_implILm1EJRKSt4pairINSt7__cxx1112basic_stringIcSt11char_traitsIcESaIcEEEN3nix9StorePathEEEEC2ESB_(ptr noundef nonnull align 8 dereferenceable(8) %7, ptr noundef nonnull align 8 dereferenceable(64) %8)
  %9 = getelementptr inbounds i8, ptr %7, i64 8
  %10 = load ptr, ptr %5, align 8
  call void @_ZNSt10_Head_baseILm0ERN3nix15SingleBuiltPathELb0EEC2ES2_(ptr noundef nonnull align 8 dereferenceable(8) %9, ptr noundef nonnull align 8 dereferenceable(81) %10)
  ret void
}

; Function Attrs: mustprogress nounwind uwtable
define linkonce_odr noundef ptr @_ZNKSt19__shared_ptr_accessIN3nix15SingleBuiltPathELN9__gnu_cxx12_Lock_policyE2ELb0ELb0EE6_M_getEv(ptr noundef nonnull align 1 dereferenceable(1) %0) #2 comdat align 2 {
  %2 = alloca ptr, align 8
  store ptr %0, ptr %2, align 8
  %3 = load ptr, ptr %2, align 8
  %4 = call noundef ptr @_ZNKSt12__shared_ptrIN3nix15SingleBuiltPathELN9__gnu_cxx12_Lock_policyE2EE3getEv(ptr noundef nonnull align 8 dereferenceable(16) %3) #1
  ret ptr %4
}

; Function Attrs: mustprogress nounwind uwtable
define linkonce_odr void @_ZNSt5tupleIJRN3nix15SingleBuiltPathERKSt4pairINSt7__cxx1112basic_stringIcSt11char_traitsIcESaIcEEENS0_9StorePathEEEEC2ILb1ETnNSt9enable_ifIXclsr4_TCCIXT_EEE29__is_implicitly_constructibleIS2_SD_EEEbE4typeELb1EEES2_SD_(ptr noundef nonnull align 8 dereferenceable(16) %0, ptr noundef nonnull align 8 dereferenceable(81) %1, ptr noundef nonnull align 8 dereferenceable(64) %2) unnamed_addr #2 comdat align 2 personality ptr @__gxx_personality_v0 {
  %4 = alloca ptr, align 8
  %5 = alloca ptr, align 8
  %6 = alloca ptr, align 8
  store ptr %0, ptr %4, align 8
  store ptr %1, ptr %5, align 8
  store ptr %2, ptr %6, align 8
  %7 = load ptr, ptr %4, align 8
  %8 = load ptr, ptr %5, align 8
  %9 = load ptr, ptr %6, align 8
  invoke void @_ZNSt11_Tuple_implILm0EJRN3nix15SingleBuiltPathERKSt4pairINSt7__cxx1112basic_stringIcSt11char_traitsIcESaIcEEENS0_9StorePathEEEEC2ES2_SD_(ptr noundef nonnull align 8 dereferenceable(16) %7, ptr noundef nonnull align 8 dereferenceable(81) %8, ptr noundef nonnull align 8 dereferenceable(64) %9)
          to label %10 unwind label %11

10:                                               ; preds = %3
  ret void

11:                                               ; preds = %3
  %12 = landingpad { ptr, i32 }
          catch ptr null
  %13 = extractvalue { ptr, i32 } %12, 0
  call void @__clang_call_terminate(ptr %13) #16
  unreachable
}

; Function Attrs: mustprogress nounwind uwtable
define linkonce_odr noundef nonnull align 8 dereferenceable(81) ptr @_ZNKSt19__shared_ptr_accessIN3nix15SingleBuiltPathELN9__gnu_cxx12_Lock_policyE2ELb0ELb0EEdeEv(ptr noundef nonnull align 1 dereferenceable(1) %0) #2 comdat align 2 {
  %2 = alloca ptr, align 8
  store ptr %0, ptr %2, align 8
  %3 = load ptr, ptr %2, align 8
  br label %4

4:                                                ; preds = %1
  br label %5

5:                                                ; preds = %4
  br label %6

6:                                                ; preds = %5
  %7 = call noundef ptr @_ZNKSt19__shared_ptr_accessIN3nix15SingleBuiltPathELN9__gnu_cxx12_Lock_policyE2ELb0ELb0EE6_M_getEv(ptr noundef nonnull align 1 dereferenceable(1) %3) #1
  ret ptr %7
}

; Function Attrs: mustprogress uwtable
define linkonce_odr noundef zeroext i1 @_ZSteqIJRN3nix15SingleBuiltPathERKSt4pairINSt7__cxx1112basic_stringIcSt11char_traitsIcESaIcEEENS0_9StorePathEEEJS2_SD_EEbRKSt5tupleIJDpT_EERKSE_IJDpT0_EE(ptr noundef nonnull align 8 dereferenceable(16) %0, ptr noundef nonnull align 8 dereferenceable(16) %1) #5 comdat {
  %3 = alloca ptr, align 8
  %4 = alloca ptr, align 8
  store ptr %0, ptr %3, align 8
  store ptr %1, ptr %4, align 8
  %5 = load ptr, ptr %3, align 8
  %6 = load ptr, ptr %4, align 8
  %7 = call noundef zeroext i1 @_ZNSt15__tuple_compareISt5tupleIJRN3nix15SingleBuiltPathERKSt4pairINSt7__cxx1112basic_stringIcSt11char_traitsIcESaIcEEENS1_9StorePathEEEESF_Lm0ELm2EE4__eqERKSF_SI_(ptr noundef nonnull align 8 dereferenceable(16) %5, ptr noundef nonnull align 8 dereferenceable(16) %6)
  ret i1 %7
}

; Function Attrs: mustprogress nounwind uwtable
define linkonce_odr void @_ZSt3tieIJN3nix15SingleBuiltPathEKSt4pairINSt7__cxx1112basic_stringIcSt11char_traitsIcESaIcEEENS0_9StorePathEEEESt5tupleIJDpRT_EESF_(ptr dead_on_unwind noalias writable sret(%"class.std::tuple") align 8 %0, ptr noundef nonnull align 8 dereferenceable(81) %1, ptr noundef nonnull align 8 dereferenceable(64) %2) #2 comdat {
  %4 = alloca ptr, align 8
  %5 = alloca ptr, align 8
  %6 = alloca ptr, align 8
  store ptr %0, ptr %4, align 8
  store ptr %1, ptr %5, align 8
  store ptr %2, ptr %6, align 8
  %7 = load ptr, ptr %5, align 8
  %8 = load ptr, ptr %6, align 8
  call void @_ZNSt5tupleIJRN3nix15SingleBuiltPathERKSt4pairINSt7__cxx1112basic_stringIcSt11char_traitsIcESaIcEEENS0_9StorePathEEEEC2ILb1ETnNSt9enable_ifIXclsr4_TCCIXT_EEE29__is_implicitly_constructibleIS2_SD_EEEbE4typeELb1EEES2_SD_(ptr noundef nonnull align 8 dereferenceable(16) %0, ptr noundef nonnull align 8 dereferenceable(81) %7, ptr noundef nonnull align 8 dereferenceable(64) %8) #1
  ret void
}

; Function Attrs: mustprogress nounwind uwtable
define linkonce_odr noundef nonnull align 8 dereferenceable(81) ptr @_ZNK3nix3refINS_15SingleBuiltPathEEdeEv(ptr noundef nonnull align 8 dereferenceable(16) %0) #2 comdat align 2 {
  %2 = alloca ptr, align 8
  store ptr %0, ptr %2, align 8
  %3 = load ptr, ptr %2, align 8
  %4 = getelementptr inbounds %"class.nix::ref", ptr %3, i32 0, i32 0
  %5 = call noundef nonnull align 8 dereferenceable(81) ptr @_ZNKSt19__shared_ptr_accessIN3nix15SingleBuiltPathELN9__gnu_cxx12_Lock_policyE2ELb0ELb0EEdeEv(ptr noundef nonnull align 1 dereferenceable(1) %4) #1
  ret ptr %5
}

; Function Attrs: mustprogress uwtable
define noundef zeroext i1 @_ZNK3nix20SingleBuiltPathBuiltneERKS0_(ptr noundef nonnull align 8 dereferenceable(80) %0, ptr noundef nonnull align 8 dereferenceable(80) %1) #5 align 2 {
  %3 = alloca ptr, align 8
  %4 = alloca ptr, align 8
  %5 = alloca ptr, align 8
  %6 = alloca %"class.std::tuple", align 8
  %7 = alloca %"class.std::tuple", align 8
  store ptr %0, ptr %3, align 8
  store ptr %1, ptr %4, align 8
  %8 = load ptr, ptr %3, align 8
  store ptr %8, ptr %5, align 8
  %9 = load ptr, ptr %5, align 8
  %10 = getelementptr inbounds %"struct.nix::SingleBuiltPathBuilt", ptr %9, i32 0, i32 0
  %11 = call noundef nonnull align 8 dereferenceable(81) ptr @_ZNK3nix3refINS_15SingleBuiltPathEEdeEv(ptr noundef nonnull align 8 dereferenceable(16) %10)
  %12 = load ptr, ptr %5, align 8
  %13 = getelementptr inbounds %"struct.nix::SingleBuiltPathBuilt", ptr %12, i32 0, i32 1
  call void @_ZSt3tieIJN3nix15SingleBuiltPathEKSt4pairINSt7__cxx1112basic_stringIcSt11char_traitsIcESaIcEEENS0_9StorePathEEEESt5tupleIJDpRT_EESF_(ptr dead_on_unwind writable sret(%"class.std::tuple") align 8 %6, ptr noundef nonnull align 8 dereferenceable(81) %11, ptr noundef nonnull align 8 dereferenceable(64) %13) #1
  %14 = load ptr, ptr %4, align 8
  store ptr %14, ptr %5, align 8
  %15 = load ptr, ptr %5, align 8
  %16 = getelementptr inbounds %"struct.nix::SingleBuiltPathBuilt", ptr %15, i32 0, i32 0
  %17 = call noundef nonnull align 8 dereferenceable(81) ptr @_ZNK3nix3refINS_15SingleBuiltPathEEdeEv(ptr noundef nonnull align 8 dereferenceable(16) %16)
  %18 = load ptr, ptr %5, align 8
  %19 = getelementptr inbounds %"struct.nix::SingleBuiltPathBuilt", ptr %18, i32 0, i32 1
  call void @_ZSt3tieIJN3nix15SingleBuiltPathEKSt4pairINSt7__cxx1112basic_stringIcSt11char_traitsIcESaIcEEENS0_9StorePathEEEESt5tupleIJDpRT_EESF_(ptr dead_on_unwind writable sret(%"class.std::tuple") align 8 %7, ptr noundef nonnull align 8 dereferenceable(81) %17, ptr noundef nonnull align 8 dereferenceable(64) %19) #1
  %20 = call noundef zeroext i1 @_ZSteqIJRN3nix15SingleBuiltPathERKSt4pairINSt7__cxx1112basic_stringIcSt11char_traitsIcESaIcEEENS0_9StorePathEEEJS2_SD_EEbRKSt5tupleIJDpT_EERKSE_IJDpT0_EE(ptr noundef nonnull align 8 dereferenceable(16) %6, ptr noundef nonnull align 8 dereferenceable(16) %7)
  %21 = xor i1 %20, true
  ret i1 %21
}