; Function Attrs: mustprogress uwtable
define noundef zeroext i1 @_ZNK3nix20SingleBuiltPathBuiltneERKS0_(ptr noundef nonnull align 8 dereferenceable(80) %0, ptr noundef nonnull align 8 dereferenceable(80) %1) local_unnamed_addr #5 align 2 personality ptr @__gxx_personality_v0 {
  %3 = alloca %"class.std::tuple", align 8
  %4 = alloca %"class.std::tuple", align 8
  %5 = load ptr, ptr %0, align 8
  %6 = getelementptr inbounds i8, ptr %0, i64 16
  store ptr %6, ptr %3, align 8, !alias.scope !4
  %7 = getelementptr inbounds i8, ptr %3, i64 8
  store ptr %5, ptr %7, align 8, !alias.scope !4
  %8 = load ptr, ptr %1, align 8
  %9 = getelementptr inbounds i8, ptr %1, i64 16
  store ptr %9, ptr %4, align 8, !alias.scope !7
  %10 = getelementptr inbounds i8, ptr %4, i64 8
  store ptr %8, ptr %10, align 8, !alias.scope !7
  %11 = call noundef zeroext i1 @_ZNSt15__tuple_compareISt5tupleIJRN3nix15SingleBuiltPathERKSt4pairINSt7__cxx1112basic_stringIcSt11char_traitsIcESaIcEEENS1_9StorePathEEEESF_Lm0ELm2EE4__eqERKSF_SI_(ptr noundef nonnull align 8 dereferenceable(16) %3, ptr noundef nonnull align 8 dereferenceable(16) %4)
  %12 = xor i1 %11, true
  ret i1 %12
}